; Function Attrs: mustprogress uwtable
define hidden void @_ZNK3sat12local_search15verify_solutionEv(ptr noundef nonnull readonly align 8 captures(none) dereferenceable(232) %0) local_unnamed_addr #3 align 2 {
  %2 = tail call noundef i32 @_Z19get_verbosity_levelv()
  %3 = icmp ugt i32 %2, 9
  br i1 %3, label %4, label %12

4:                                                ; preds = %1
  %5 = tail call noundef zeroext i1 @_Z11is_threadedv()
  br i1 %5, label %6, label %9

6:                                                ; preds = %4
  tail call void @_Z12verbose_lockv()
  %7 = tail call noundef nonnull align 8 dereferenceable(8) ptr @_Z14verbose_streamv()
  %8 = tail call noundef nonnull align 8 dereferenceable(8) ptr @_ZSt16__ostream_insertIcSt11char_traitsIcEERSt13basic_ostreamIT_T0_ES6_PKS3_l(ptr noundef nonnull align 8 dereferenceable(8) %7, ptr noundef nonnull @.str.6, i64 noundef 19)
  tail call void @_Z14verbose_unlockv()
  br label %12

9:                                                ; preds = %4
  %10 = tail call noundef nonnull align 8 dereferenceable(8) ptr @_Z14verbose_streamv()
  %11 = tail call noundef nonnull align 8 dereferenceable(8) ptr @_ZSt16__ostream_insertIcSt11char_traitsIcEERSt13basic_ostreamIT_T0_ES6_PKS3_l(ptr noundef nonnull align 8 dereferenceable(8) %10, ptr noundef nonnull @.str.6, i64 noundef 19)
  br label %12

12:                                               ; preds = %6, %9, %1
  %13 = getelementptr inbounds nuw i8, ptr %0, i64 64
  %14 = load ptr, ptr %13, align 8, !tbaa !72
  %15 = icmp eq ptr %14, null
  br i1 %15, label %._crit_edge, label %_ZNK6vectorIN3sat12local_search10constraintELb1EjE3endEv.exit

_ZNK6vectorIN3sat12local_search10constraintELb1EjE3endEv.exit: ; preds = %12
  %16 = getelementptr inbounds i8, ptr %14, i64 -4
  %17 = load i32, ptr %16, align 4, !tbaa !13
  %18 = zext i32 %17 to i64
  %19 = getelementptr inbounds nuw %"struct.sat::local_search::constraint", ptr %14, i64 %18
  %.not8 = icmp eq i32 %17, 0
  br i1 %.not8, label %._crit_edge, label %.lr.ph

._crit_edge:                                      ; preds = %.lr.ph, %12, %_ZNK6vectorIN3sat12local_search10constraintELb1EjE3endEv.exit
  ret void

.lr.ph:                                           ; preds = %_ZNK6vectorIN3sat12local_search10constraintELb1EjE3endEv.exit, %.lr.ph
  %.09 = phi ptr [ %20, %.lr.ph ], [ %14, %_ZNK6vectorIN3sat12local_search10constraintELb1EjE3endEv.exit ]
  tail call void @_ZNK3sat12local_search17verify_constraintERKNS0_10constraintE(ptr noundef nonnull align 8 dereferenceable(232) %0, ptr noundef nonnull align 8 dereferenceable(32) %.09)
  %20 = getelementptr inbounds nuw i8, ptr %.09, i64 32
  %.not = icmp eq ptr %20, %19
  br i1 %.not, label %._crit_edge, label %.lr.ph
}